target datalayout = "e-m:e-p270:32:32-p271:32:32-p272:64:64-i64:64-i128:128-f80:128-n8:16:32:64-S128"
target triple = "x86_64-pc-linux-gnu"

%"class.zmq::ctx_t" = type <{ %"class.zmq::thread_ctx_t", i32, [4 x i8], %"class.zmq::array_t", %"class.std::vector.6", i8, i8, [6 x i8], %"class.zmq::mutex_t", ptr, %"class.std::vector.11", %"class.std::vector.16", %"class.zmq::mailbox_t", %"class.std::map", %"class.std::multimap", %"class.zmq::mutex_t", i32, i32, i32, i8, i8, i8, i8, i32, [4 x i8] }>
%"class.zmq::thread_ctx_t" = type { %"class.zmq::mutex_t", i32, i32, %"class.std::set", %"class.std::__cxx11::basic_string" }
%"class.std::set" = type { %"class.std::_Rb_tree" }
%"class.std::_Rb_tree" = type { %"struct.std::_Rb_tree<int, int, std::_Identity<int>, std::less<int>>::_Rb_tree_impl" }
%"struct.std::_Rb_tree<int, int, std::_Identity<int>, std::less<int>>::_Rb_tree_impl" = type { [8 x i8], %"struct.std::_Rb_tree_header" }
%"struct.std::_Rb_tree_header" = type { %"struct.std::_Rb_tree_node_base", i64 }
%"struct.std::_Rb_tree_node_base" = type { i32, ptr, ptr, ptr }
%"class.std::__cxx11::basic_string" = type { %"struct.std::__cxx11::basic_string<char>::_Alloc_hider", i64, %union.anon }
%"struct.std::__cxx11::basic_string<char>::_Alloc_hider" = type { ptr }
%union.anon = type { i64, [8 x i8] }
%"class.zmq::array_t" = type { %"class.std::vector" }
%"class.std::vector" = type { %"struct.std::_Vector_base" }
%"struct.std::_Vector_base" = type { %"struct.std::_Vector_base<zmq::socket_base_t *, std::allocator<zmq::socket_base_t *>>::_Vector_impl" }
%"struct.std::_Vector_base<zmq::socket_base_t *, std::allocator<zmq::socket_base_t *>>::_Vector_impl" = type { %"struct.std::_Vector_base<zmq::socket_base_t *, std::allocator<zmq::socket_base_t *>>::_Vector_impl_data" }
%"struct.std::_Vector_base<zmq::socket_base_t *, std::allocator<zmq::socket_base_t *>>::_Vector_impl_data" = type { ptr, ptr, ptr }
%"class.std::vector.6" = type { %"struct.std::_Vector_base.7" }
%"struct.std::_Vector_base.7" = type { %"struct.std::_Vector_base<unsigned int, std::allocator<unsigned int>>::_Vector_impl" }
%"struct.std::_Vector_base<unsigned int, std::allocator<unsigned int>>::_Vector_impl" = type { %"struct.std::_Vector_base<unsigned int, std::allocator<unsigned int>>::_Vector_impl_data" }
%"struct.std::_Vector_base<unsigned int, std::allocator<unsigned int>>::_Vector_impl_data" = type { ptr, ptr, ptr }
%"class.std::vector.11" = type { %"struct.std::_Vector_base.12" }
%"struct.std::_Vector_base.12" = type { %"struct.std::_Vector_base<zmq::io_thread_t *, std::allocator<zmq::io_thread_t *>>::_Vector_impl" }
%"struct.std::_Vector_base<zmq::io_thread_t *, std::allocator<zmq::io_thread_t *>>::_Vector_impl" = type { %"struct.std::_Vector_base<zmq::io_thread_t *, std::allocator<zmq::io_thread_t *>>::_Vector_impl_data" }
%"struct.std::_Vector_base<zmq::io_thread_t *, std::allocator<zmq::io_thread_t *>>::_Vector_impl_data" = type { ptr, ptr, ptr }
%"class.std::vector.16" = type { %"struct.std::_Vector_base.17" }
%"struct.std::_Vector_base.17" = type { %"struct.std::_Vector_base<zmq::i_mailbox *, std::allocator<zmq::i_mailbox *>>::_Vector_impl" }
%"struct.std::_Vector_base<zmq::i_mailbox *, std::allocator<zmq::i_mailbox *>>::_Vector_impl" = type { %"struct.std::_Vector_base<zmq::i_mailbox *, std::allocator<zmq::i_mailbox *>>::_Vector_impl_data" }
%"struct.std::_Vector_base<zmq::i_mailbox *, std::allocator<zmq::i_mailbox *>>::_Vector_impl_data" = type { ptr, ptr, ptr }
%"class.zmq::mailbox_t" = type <{ %"class.zmq::i_mailbox", %"class.zmq::ypipe_t", %"class.zmq::signaler_t", [4 x i8], %"class.zmq::mutex_t", i8, [7 x i8] }>
%"class.zmq::i_mailbox" = type { ptr }
%"class.zmq::ypipe_t" = type { %"class.zmq::ypipe_base_t", %"class.zmq::yqueue_t", ptr, ptr, ptr, %"class.zmq::atomic_ptr_t.21" }
%"class.zmq::ypipe_base_t" = type { ptr }
%"class.zmq::yqueue_t" = type { ptr, i32, ptr, i32, ptr, i32, %"class.zmq::atomic_ptr_t" }
%"class.zmq::atomic_ptr_t" = type { %"struct.std::atomic" }
%"struct.std::atomic" = type { %"struct.std::__atomic_base" }
%"struct.std::__atomic_base" = type { ptr }
%"class.zmq::atomic_ptr_t.21" = type { %"struct.std::atomic.22" }
%"struct.std::atomic.22" = type { %"struct.std::__atomic_base.23" }
%"struct.std::__atomic_base.23" = type { ptr }
%"class.zmq::signaler_t" = type { i32, i32, i32 }
%"class.std::map" = type { %"class.std::_Rb_tree.24" }
%"class.std::_Rb_tree.24" = type { %"struct.std::_Rb_tree<std::__cxx11::basic_string<char>, std::pair<const std::__cxx11::basic_string<char>, zmq::endpoint_t>, std::_Select1st<std::pair<const std::__cxx11::basic_string<char>, zmq::endpoint_t>>, std::less<std::__cxx11::basic_string<char>>>::_Rb_tree_impl" }
%"struct.std::_Rb_tree<std::__cxx11::basic_string<char>, std::pair<const std::__cxx11::basic_string<char>, zmq::endpoint_t>, std::_Select1st<std::pair<const std::__cxx11::basic_string<char>, zmq::endpoint_t>>, std::less<std::__cxx11::basic_string<char>>>::_Rb_tree_impl" = type { [8 x i8], %"struct.std::_Rb_tree_header" }
%"class.std::multimap" = type { %"class.std::_Rb_tree.29" }
%"class.std::_Rb_tree.29" = type { %"struct.std::_Rb_tree<std::__cxx11::basic_string<char>, std::pair<const std::__cxx11::basic_string<char>, zmq::ctx_t::pending_connection_t>, std::_Select1st<std::pair<const std::__cxx11::basic_string<char>, zmq::ctx_t::pending_connection_t>>, std::less<std::__cxx11::basic_string<char>>>::_Rb_tree_impl" }
%"struct.std::_Rb_tree<std::__cxx11::basic_string<char>, std::pair<const std::__cxx11::basic_string<char>, zmq::ctx_t::pending_connection_t>, std::_Select1st<std::pair<const std::__cxx11::basic_string<char>, zmq::ctx_t::pending_connection_t>>, std::less<std::__cxx11::basic_string<char>>>::_Rb_tree_impl" = type { [8 x i8], %"struct.std::_Rb_tree_header" }
%"class.zmq::mutex_t" = type <{ %union.pthread_mutex_t, %union.pthread_mutexattr_t, [4 x i8] }>
%union.pthread_mutex_t = type { %struct.__pthread_mutex_s }
%struct.__pthread_mutex_s = type { i32, i32, i32, i32, i32, i16, i16, %struct.__pthread_internal_list }
%struct.__pthread_internal_list = type { ptr, ptr }
%union.pthread_mutexattr_t = type { i32 }
%"class.__gnu_cxx::__normal_iterator.158" = type { ptr }

; Function Attrs: mustprogress nounwind uwtable
define linkonce_odr noundef nonnull align 8 dereferenceable(8) ptr @_ZNK9__gnu_cxx17__normal_iteratorIPKPN3zmq11io_thread_tESt6vectorIS3_SaIS3_EEE4baseEv(ptr noundef nonnull align 8 dereferenceable(8) %0) #1 comdat align 2 {
  %2 = alloca ptr, align 8
  store ptr %0, ptr %2, align 8, !tbaa !610
  %3 = load ptr, ptr %2, align 8
  %4 = getelementptr inbounds nuw %"class.__gnu_cxx::__normal_iterator.158", ptr %3, i32 0, i32 0
  ret ptr %4
}

; Function Attrs: mustprogress nounwind uwtable
define linkonce_odr void @_ZN9__gnu_cxx17__normal_iteratorIPKPN3zmq11io_thread_tESt6vectorIS3_SaIS3_EEEC2ERKS5_(ptr noundef nonnull align 8 dereferenceable(8) %0, ptr noundef nonnull align 8 dereferenceable(8) %1) unnamed_addr #1 comdat align 2 {
  %3 = alloca ptr, align 8
  %4 = alloca ptr, align 8
  store ptr %0, ptr %3, align 8, !tbaa !610
  store ptr %1, ptr %4, align 8, !tbaa !505
  %5 = load ptr, ptr %3, align 8
  %6 = getelementptr inbounds nuw %"class.__gnu_cxx::__normal_iterator.158", ptr %5, i32 0, i32 0
  %7 = load ptr, ptr %4, align 8, !tbaa !505
  %8 = load ptr, ptr %7, align 8, !tbaa !154
  store ptr %8, ptr %6, align 8, !tbaa !612
  ret void
}

; Function Attrs: inlinehint mustprogress nounwind uwtable
define linkonce_odr noundef zeroext i1 @_ZN9__gnu_cxxeqIPKPN3zmq11io_thread_tESt6vectorIS3_SaIS3_EEEEbRKNS_17__normal_iteratorIT_T0_EESE_(ptr noundef nonnull align 8 dereferenceable(8) %0, ptr noundef nonnull align 8 dereferenceable(8) %1) #5 comdat {
  %3 = alloca ptr, align 8
  %4 = alloca ptr, align 8
  store ptr %0, ptr %3, align 8, !tbaa !610
  store ptr %1, ptr %4, align 8, !tbaa !610
  %5 = load ptr, ptr %3, align 8, !tbaa !610
  %6 = call noundef nonnull align 8 dereferenceable(8) ptr @_ZNK9__gnu_cxx17__normal_iteratorIPKPN3zmq11io_thread_tESt6vectorIS3_SaIS3_EEE4baseEv(ptr noundef nonnull align 8 dereferenceable(8) %5) #21
  %7 = load ptr, ptr %6, align 8, !tbaa !154
  %8 = load ptr, ptr %4, align 8, !tbaa !610
  %9 = call noundef nonnull align 8 dereferenceable(8) ptr @_ZNK9__gnu_cxx17__normal_iteratorIPKPN3zmq11io_thread_tESt6vectorIS3_SaIS3_EEE4baseEv(ptr noundef nonnull align 8 dereferenceable(8) %8) #21
  %10 = load ptr, ptr %9, align 8, !tbaa !154
  %11 = icmp eq ptr %7, %10
  ret i1 %11
}

; Function Attrs: mustprogress nounwind uwtable
define linkonce_odr ptr @_ZNKSt6vectorIPN3zmq11io_thread_tESaIS2_EE3endEv(ptr noundef nonnull align 8 dereferenceable(24) %0) #1 comdat align 2 {
  %2 = alloca %"class.__gnu_cxx::__normal_iterator.158", align 8
  %3 = alloca ptr, align 8
  store ptr %0, ptr %3, align 8, !tbaa !96
  %4 = load ptr, ptr %3, align 8
  %5 = getelementptr inbounds nuw %"struct.std::_Vector_base.12", ptr %4, i32 0, i32 0
  %6 = getelementptr inbounds nuw %"struct.std::_Vector_base<zmq::io_thread_t *, std::allocator<zmq::io_thread_t *>>::_Vector_impl_data", ptr %5, i32 0, i32 1
  call void @_ZN9__gnu_cxx17__normal_iteratorIPKPN3zmq11io_thread_tESt6vectorIS3_SaIS3_EEEC2ERKS5_(ptr noundef nonnull align 8 dereferenceable(8) %2, ptr noundef nonnull align 8 dereferenceable(8) %6) #21
  %7 = getelementptr inbounds nuw %"class.__gnu_cxx::__normal_iterator.158", ptr %2, i32 0, i32 0
  %8 = load ptr, ptr %7, align 8
  ret ptr %8
}

; Function Attrs: mustprogress nounwind uwtable
define linkonce_odr ptr @_ZNKSt6vectorIPN3zmq11io_thread_tESaIS2_EE5beginEv(ptr noundef nonnull align 8 dereferenceable(24) %0) #1 comdat align 2 {
  %2 = alloca %"class.__gnu_cxx::__normal_iterator.158", align 8
  %3 = alloca ptr, align 8
  store ptr %0, ptr %3, align 8, !tbaa !96
  %4 = load ptr, ptr %3, align 8
  %5 = getelementptr inbounds nuw %"struct.std::_Vector_base.12", ptr %4, i32 0, i32 0
  %6 = getelementptr inbounds nuw %"struct.std::_Vector_base<zmq::io_thread_t *, std::allocator<zmq::io_thread_t *>>::_Vector_impl_data", ptr %5, i32 0, i32 0
  call void @_ZN9__gnu_cxx17__normal_iteratorIPKPN3zmq11io_thread_tESt6vectorIS3_SaIS3_EEEC2ERKS5_(ptr noundef nonnull align 8 dereferenceable(8) %2, ptr noundef nonnull align 8 dereferenceable(8) %6) #21
  %7 = getelementptr inbounds nuw %"class.__gnu_cxx::__normal_iterator.158", ptr %2, i32 0, i32 0
  %8 = load ptr, ptr %7, align 8
  ret ptr %8
}

; Function Attrs: mustprogress nounwind uwtable
define linkonce_odr noundef nonnull align 8 dereferenceable(8) ptr @_ZNSt6vectorIPN3zmq11io_thread_tESaIS2_EEixEm(ptr noundef nonnull align 8 dereferenceable(24) %0, i64 noundef %1) #1 comdat align 2 {
  %3 = alloca ptr, align 8
  %4 = alloca i64, align 8
  store ptr %0, ptr %3, align 8, !tbaa !96
  store i64 %1, ptr %4, align 8, !tbaa !110
  %5 = load ptr, ptr %3, align 8
  %6 = getelementptr inbounds nuw %"struct.std::_Vector_base.12", ptr %5, i32 0, i32 0
  %7 = getelementptr inbounds nuw %"struct.std::_Vector_base<zmq::io_thread_t *, std::allocator<zmq::io_thread_t *>>::_Vector_impl_data", ptr %6, i32 0, i32 0
  %8 = load ptr, ptr %7, align 8, !tbaa !106
  %9 = load i64, ptr %4, align 8, !tbaa !110
  %10 = getelementptr inbounds nuw ptr, ptr %8, i64 %9
  ret ptr %10
}

; Function Attrs: mustprogress nounwind uwtable
define linkonce_odr noundef i64 @_ZNKSt6vectorIPN3zmq11io_thread_tESaIS2_EE4sizeEv(ptr noundef nonnull align 8 dereferenceable(24) %0) #1 comdat align 2 {
  %2 = alloca ptr, align 8
  store ptr %0, ptr %2, align 8, !tbaa !96
  %3 = load ptr, ptr %2, align 8
  %4 = getelementptr inbounds nuw %"struct.std::_Vector_base.12", ptr %3, i32 0, i32 0
  %5 = getelementptr inbounds nuw %"struct.std::_Vector_base<zmq::io_thread_t *, std::allocator<zmq::io_thread_t *>>::_Vector_impl_data", ptr %4, i32 0, i32 1
  %6 = load ptr, ptr %5, align 8, !tbaa !107
  %7 = getelementptr inbounds nuw %"struct.std::_Vector_base.12", ptr %3, i32 0, i32 0
  %8 = getelementptr inbounds nuw %"struct.std::_Vector_base<zmq::io_thread_t *, std::allocator<zmq::io_thread_t *>>::_Vector_impl_data", ptr %7, i32 0, i32 0
  %9 = load ptr, ptr %8, align 8, !tbaa !106
  %10 = ptrtoint ptr %6 to i64
  %11 = ptrtoint ptr %9 to i64
  %12 = sub i64 %10, %11
  %13 = sdiv exact i64 %12, 8
  ret i64 %13
}

; Function Attrs: mustprogress nounwind uwtable
define linkonce_odr noundef zeroext i1 @_ZNKSt6vectorIPN3zmq11io_thread_tESaIS2_EE5emptyEv(ptr noundef nonnull align 8 dereferenceable(24) %0) #1 comdat align 2 {
  %2 = alloca ptr, align 8
  %3 = alloca %"class.__gnu_cxx::__normal_iterator.158", align 8
  %4 = alloca %"class.__gnu_cxx::__normal_iterator.158", align 8
  store ptr %0, ptr %2, align 8, !tbaa !96
  %5 = load ptr, ptr %2, align 8
  call void @llvm.lifetime.start.p0(i64 8, ptr %3) #21
  %6 = call ptr @_ZNKSt6vectorIPN3zmq11io_thread_tESaIS2_EE5beginEv(ptr noundef nonnull align 8 dereferenceable(24) %5) #21
  %7 = getelementptr inbounds nuw %"class.__gnu_cxx::__normal_iterator.158", ptr %3, i32 0, i32 0
  store ptr %6, ptr %7, align 8
  call void @llvm.lifetime.start.p0(i64 8, ptr %4) #21
  %8 = call ptr @_ZNKSt6vectorIPN3zmq11io_thread_tESaIS2_EE3endEv(ptr noundef nonnull align 8 dereferenceable(24) %5) #21
  %9 = getelementptr inbounds nuw %"class.__gnu_cxx::__normal_iterator.158", ptr %4, i32 0, i32 0
  store ptr %8, ptr %9, align 8
  %10 = call noundef zeroext i1 @_ZN9__gnu_cxxeqIPKPN3zmq11io_thread_tESt6vectorIS3_SaIS3_EEEEbRKNS_17__normal_iteratorIT_T0_EESE_(ptr noundef nonnull align 8 dereferenceable(8) %3, ptr noundef nonnull align 8 dereferenceable(8) %4) #21
  call void @llvm.lifetime.end.p0(i64 8, ptr %4) #21
  call void @llvm.lifetime.end.p0(i64 8, ptr %3) #21
  ret i1 %10
}

; Function Attrs: mustprogress uwtable
define noundef ptr @_ZN3zmq5ctx_t16choose_io_threadEm(ptr noundef nonnull align 8 dereferenceable(648) %0, i64 noundef %1) #0 align 2 {
  %3 = alloca ptr, align 8
  %4 = alloca ptr, align 8
  %5 = alloca i64, align 8
  %6 = alloca i32, align 4
  %7 = alloca ptr, align 8
  %8 = alloca i64, align 8
  %9 = alloca i64, align 8
  %10 = alloca i32, align 4
  store ptr %0, ptr %4, align 8, !tbaa !3
  store i64 %1, ptr %5, align 8, !tbaa !110
  %11 = load ptr, ptr %4, align 8
  %12 = getelementptr inbounds nuw %"class.zmq::ctx_t", ptr %11, i32 0, i32 10
  %13 = call noundef zeroext i1 @_ZNKSt6vectorIPN3zmq11io_thread_tESaIS2_EE5emptyEv(ptr noundef nonnull align 8 dereferenceable(24) %12) #21
  br i1 %13, label %14, label %15

14:                                               ; preds = %2
  store ptr null, ptr %3, align 8
  br label %57

15:                                               ; preds = %2
  call void @llvm.lifetime.start.p0(i64 4, ptr %6) #21
  store i32 -1, ptr %6, align 4, !tbaa !92
  call void @llvm.lifetime.start.p0(i64 8, ptr %7) #21
  store ptr null, ptr %7, align 8, !tbaa !111
  call void @llvm.lifetime.start.p0(i64 8, ptr %8) #21
  store i64 0, ptr %8, align 8, !tbaa !110
  call void @llvm.lifetime.start.p0(i64 8, ptr %9) #21
  %16 = getelementptr inbounds nuw %"class.zmq::ctx_t", ptr %11, i32 0, i32 10
  %17 = call noundef i64 @_ZNKSt6vectorIPN3zmq11io_thread_tESaIS2_EE4sizeEv(ptr noundef nonnull align 8 dereferenceable(24) %16) #21
  store i64 %17, ptr %9, align 8, !tbaa !110
  br label %18

18:                                               ; preds = %52, %15
  %19 = load i64, ptr %8, align 8, !tbaa !110
  %20 = load i64, ptr %9, align 8, !tbaa !110
  %21 = icmp ne i64 %19, %20
  br i1 %21, label %23, label %22

22:                                               ; preds = %18
  call void @llvm.lifetime.end.p0(i64 8, ptr %9) #21
  call void @llvm.lifetime.end.p0(i64 8, ptr %8) #21
  br label %55

23:                                               ; preds = %18
  %24 = load i64, ptr %5, align 8, !tbaa !110
  %25 = icmp ne i64 %24, 0
  br i1 %25, label %26, label %32

26:                                               ; preds = %23
  %27 = load i64, ptr %5, align 8, !tbaa !110
  %28 = load i64, ptr %8, align 8, !tbaa !110
  %29 = shl i64 1, %28
  %30 = and i64 %27, %29
  %31 = icmp ne i64 %30, 0
  br i1 %31, label %32, label %51

32:                                               ; preds = %26, %23
  call void @llvm.lifetime.start.p0(i64 4, ptr %10) #21
  %33 = getelementptr inbounds nuw %"class.zmq::ctx_t", ptr %11, i32 0, i32 10
  %34 = load i64, ptr %8, align 8, !tbaa !110
  %35 = call noundef nonnull align 8 dereferenceable(8) ptr @_ZNSt6vectorIPN3zmq11io_thread_tESaIS2_EEixEm(ptr noundef nonnull align 8 dereferenceable(24) %33, i64 noundef %34) #21
  %36 = load ptr, ptr %35, align 8, !tbaa !111
  %37 = call noundef i32 @_ZNK3zmq11io_thread_t8get_loadEv(ptr noundef nonnull align 8 dereferenceable(224) %36)
  store i32 %37, ptr %10, align 4, !tbaa !92
  %38 = load ptr, ptr %7, align 8, !tbaa !111
  %39 = icmp eq ptr %38, null
  br i1 %39, label %44, label %40

40:                                               ; preds = %32
  %41 = load i32, ptr %10, align 4, !tbaa !92
  %42 = load i32, ptr %6, align 4, !tbaa !92
  %43 = icmp slt i32 %41, %42
  br i1 %43, label %44, label %50

44:                                               ; preds = %40, %32
  %45 = load i32, ptr %10, align 4, !tbaa !92
  store i32 %45, ptr %6, align 4, !tbaa !92
  %46 = getelementptr inbounds nuw %"class.zmq::ctx_t", ptr %11, i32 0, i32 10
  %47 = load i64, ptr %8, align 8, !tbaa !110
  %48 = call noundef nonnull align 8 dereferenceable(8) ptr @_ZNSt6vectorIPN3zmq11io_thread_tESaIS2_EEixEm(ptr noundef nonnull align 8 dereferenceable(24) %46, i64 noundef %47) #21
  %49 = load ptr, ptr %48, align 8, !tbaa !111
  store ptr %49, ptr %7, align 8, !tbaa !111
  br label %50

50:                                               ; preds = %44, %40
  call void @llvm.lifetime.end.p0(i64 4, ptr %10) #21
  br label %51

51:                                               ; preds = %50, %26
  br label %52

52:                                               ; preds = %51
  %53 = load i64, ptr %8, align 8, !tbaa !110
  %54 = add i64 %53, 1
  store i64 %54, ptr %8, align 8, !tbaa !110
  br label %18, !llvm.loop !167

55:                                               ; preds = %22
  %56 = load ptr, ptr %7, align 8, !tbaa !111
  store ptr %56, ptr %3, align 8
  call void @llvm.lifetime.end.p0(i64 8, ptr %7) #21
  call void @llvm.lifetime.end.p0(i64 4, ptr %6) #21
  br label %57

57:                                               ; preds = %55, %14
  %58 = load ptr, ptr %3, align 8
  ret ptr %58
}