; Function Attrs: mustprogress uwtable
define noundef ptr @_ZN3zmq5ctx_t16choose_io_threadEm(ptr noundef nonnull readonly align 8 captures(none) dereferenceable(648) %0, i64 noundef %1) local_unnamed_addr #0 align 2 {
  %3 = getelementptr inbounds nuw i8, ptr %0, i64 256
  %4 = load ptr, ptr %3, align 8, !tbaa !161
  %5 = getelementptr inbounds nuw i8, ptr %0, i64 264
  %6 = load ptr, ptr %5, align 8, !tbaa !161
  %7 = icmp eq ptr %4, %6
  br i1 %7, label %.loopexit, label %.lr.ph

.lr.ph:                                           ; preds = %2
  %8 = ptrtoint ptr %6 to i64
  %9 = ptrtoint ptr %4 to i64
  %10 = sub i64 %8, %9
  %11 = ashr exact i64 %10, 3
  %.not20 = icmp eq i64 %1, 0
  br i1 %.not20, label %.lr.ph.split.us, label %.lr.ph.split

.lr.ph.split.us:                                  ; preds = %.lr.ph, %22
  %.01425.us = phi i32 [ %.2.us, %22 ], [ -1, %.lr.ph ]
  %.01524.us = phi i64 [ %23, %22 ], [ 0, %.lr.ph ]
  %.01623.us = phi ptr [ %.218.us, %22 ], [ null, %.lr.ph ]
  %12 = load ptr, ptr %3, align 8, !tbaa !90
  %13 = getelementptr inbounds nuw ptr, ptr %12, i64 %.01524.us
  %14 = load ptr, ptr %13, align 8, !tbaa !99
  %15 = tail call noundef i32 @_ZNK3zmq11io_thread_t8get_loadEv(ptr noundef nonnull align 8 dereferenceable(224) %14)
  %16 = icmp eq ptr %.01623.us, null
  %17 = icmp slt i32 %15, %.01425.us
  %or.cond.us = select i1 %16, i1 true, i1 %17
  br i1 %or.cond.us, label %18, label %22

18:                                               ; preds = %.lr.ph.split.us
  %19 = load ptr, ptr %3, align 8, !tbaa !90
  %20 = getelementptr inbounds nuw ptr, ptr %19, i64 %.01524.us
  %21 = load ptr, ptr %20, align 8, !tbaa !99
  br label %22

22:                                               ; preds = %18, %.lr.ph.split.us
  %.218.us = phi ptr [ %21, %18 ], [ %.01623.us, %.lr.ph.split.us ]
  %.2.us = phi i32 [ %15, %18 ], [ %.01425.us, %.lr.ph.split.us ]
  %23 = add i64 %.01524.us, 1
  %.not.us = icmp eq i64 %23, %11
  br i1 %.not.us, label %.loopexit, label %.lr.ph.split.us, !llvm.loop !162

.lr.ph.split:                                     ; preds = %.lr.ph, %37
  %.01425 = phi i32 [ %.2, %37 ], [ -1, %.lr.ph ]
  %.01524 = phi i64 [ %38, %37 ], [ 0, %.lr.ph ]
  %.01623 = phi ptr [ %.218, %37 ], [ null, %.lr.ph ]
  %24 = shl nuw i64 1, %.01524
  %25 = and i64 %24, %1
  %.not21 = icmp eq i64 %25, 0
  br i1 %.not21, label %37, label %26

26:                                               ; preds = %.lr.ph.split
  %27 = load ptr, ptr %3, align 8, !tbaa !90
  %28 = getelementptr inbounds nuw ptr, ptr %27, i64 %.01524
  %29 = load ptr, ptr %28, align 8, !tbaa !99
  %30 = tail call noundef i32 @_ZNK3zmq11io_thread_t8get_loadEv(ptr noundef nonnull align 8 dereferenceable(224) %29)
  %31 = icmp eq ptr %.01623, null
  %32 = icmp slt i32 %30, %.01425
  %or.cond = select i1 %31, i1 true, i1 %32
  br i1 %or.cond, label %33, label %37

33:                                               ; preds = %26
  %34 = load ptr, ptr %3, align 8, !tbaa !90
  %35 = getelementptr inbounds nuw ptr, ptr %34, i64 %.01524
  %36 = load ptr, ptr %35, align 8, !tbaa !99
  br label %37

37:                                               ; preds = %33, %26, %.lr.ph.split
  %.218 = phi ptr [ %.01623, %.lr.ph.split ], [ %36, %33 ], [ %.01623, %26 ]
  %.2 = phi i32 [ %.01425, %.lr.ph.split ], [ %30, %33 ], [ %.01425, %26 ]
  %38 = add i64 %.01524, 1
  %.not = icmp eq i64 %38, %11
  br i1 %.not, label %.loopexit, label %.lr.ph.split, !llvm.loop !162

.loopexit:                                        ; preds = %37, %22, %2
  %.0 = phi ptr [ null, %2 ], [ %.218.us, %22 ], [ %.218, %37 ]
  ret ptr %.0
}